target datalayout = "e-m:e-p270:32:32-p271:32:32-p272:64:64-i64:64-i128:128-f80:128-n8:16:32:64-S128"
target triple = "x86_64-pc-linux-gnu"

%struct.Csw_Cut_t_ = type { ptr, i32, i32, i32, i16, i8, i8, [0 x i32] }

; Function Attrs: nounwind uwtable
define i32 @Csw_CutHash(ptr noundef %0) #0 {
  %2 = alloca ptr, align 8
  %3 = alloca i32, align 4
  %4 = alloca i32, align 4
  store ptr %0, ptr %2, align 8
  store i32 0, ptr %3, align 4
  store i32 0, ptr %4, align 4
  br label %5

5:                                                ; preds = %26, %1
  %6 = load i32, ptr %4, align 4
  %7 = load ptr, ptr %2, align 8
  %8 = getelementptr inbounds %struct.Csw_Cut_t_, ptr %7, i32 0, i32 6
  %9 = load i8, ptr %8, align 1
  %10 = sext i8 %9 to i32
  %11 = icmp slt i32 %6, %10
  br i1 %11, label %12, label %29

12:                                               ; preds = %5
  %13 = load ptr, ptr %2, align 8
  %14 = getelementptr inbounds %struct.Csw_Cut_t_, ptr %13, i32 0, i32 7
  %15 = load i32, ptr %4, align 4
  %16 = sext i32 %15 to i64
  %17 = getelementptr inbounds [0 x i32], ptr %14, i64 0, i64 %16
  %18 = load i32, ptr %17, align 4
  %19 = load i32, ptr %4, align 4
  %20 = sext i32 %19 to i64
  %21 = getelementptr inbounds [128 x i32], ptr @Csw_CutHash.s_FPrimes, i64 0, i64 %20
  %22 = load i32, ptr %21, align 4
  %23 = mul nsw i32 %18, %22
  %24 = load i32, ptr %3, align 4
  %25 = xor i32 %24, %23
  store i32 %25, ptr %3, align 4
  br label %26

26:                                               ; preds = %12
  %27 = load i32, ptr %4, align 4
  %28 = add nsw i32 %27, 1
  store i32 %28, ptr %4, align 4
  br label %5, !llvm.loop !4

29:                                               ; preds = %5
  %30 = load i32, ptr %3, align 4
  ret i32 %30
}