; Function Attrs: nofree norecurse nosync nounwind memory(argmem: read) uwtable
define i32 @Csw_CutHash(ptr noundef readonly captures(none) %0) local_unnamed_addr #0 {
  %2 = getelementptr inbounds nuw i8, ptr %0, i64 23
  %3 = load i8, ptr %2, align 1
  %4 = icmp sgt i8 %3, 0
  br i1 %4, label %.lr.ph, label %._crit_edge

.lr.ph:                                           ; preds = %1
  %wide.trip.count = zext nneg i8 %3 to i64
  %5 = getelementptr inbounds nuw i8, ptr %0, i64 24
  br label %6

6:                                                ; preds = %.lr.ph, %6
  %indvars.iv = phi i64 [ 0, %.lr.ph ], [ %indvars.iv.next, %6 ]
  %.078 = phi i32 [ 0, %.lr.ph ], [ %12, %6 ]
  %7 = getelementptr inbounds nuw [0 x i32], ptr %5, i64 0, i64 %indvars.iv
  %8 = load i32, ptr %7, align 4
  %9 = getelementptr inbounds nuw [128 x i32], ptr @Csw_CutHash.s_FPrimes, i64 0, i64 %indvars.iv
  %10 = load i32, ptr %9, align 4
  %11 = mul nsw i32 %10, %8
  %12 = xor i32 %11, %.078
  %indvars.iv.next = add nuw nsw i64 %indvars.iv, 1
  %exitcond.not = icmp eq i64 %indvars.iv.next, %wide.trip.count
  br i1 %exitcond.not, label %._crit_edge, label %6, !llvm.loop !4

._crit_edge:                                      ; preds = %6, %1
  %.07.lcssa = phi i32 [ 0, %1 ], [ %12, %6 ]
  ret i32 %.07.lcssa
}